target datalayout = "e-m:e-p270:32:32-p271:32:32-p272:64:64-i64:64-i128:128-f80:128-n8:16:32:64-S128"
target triple = "x86_64-pc-linux-gnu"

%struct._proto_node = type { ptr, ptr, ptr, ptr, ptr, ptr, ptr }
%struct.tree_data_t = type { ptr, i8, i8, i32, ptr, i32, i32 }
%struct._packet_info = type { ptr, ptr, i32, i32, %struct.nstime_t, %struct.nstime_t, %struct.nstime_t, i8, ptr, ptr, ptr, ptr, %struct._address, %struct._address, %struct._address, %struct._address, %struct._address, %struct._address, i32, ptr, i8, [3 x i8], %struct.anon, i32, i32, i32, i32, ptr, i8, ptr, ptr, i16, i16, i32, i32, i16, i32, i32, ptr, ptr, ptr, i8, i8, i16, i16, i16, i32, i16, i16, ptr, ptr, ptr, ptr, ptr, i32, i32 }
%struct.nstime_t = type { i64, i32 }
%struct._address = type { i32, i32, ptr, ptr }
%struct.anon = type { i8, [3 x i8] }
%struct.decoded_data_t = type { i32, ptr }

; Function Attrs: null_pointer_is_valid sspstrong uwtable
define ptr @proto_find_undecoded_data(ptr noundef %0, i32 noundef %1) #0 {
  %3 = alloca ptr, align 8
  %4 = alloca i32, align 4
  %5 = alloca %struct.decoded_data_t, align 8
  store ptr %0, ptr %3, align 8
  store i32 %1, ptr %4, align 4
  call void @llvm.lifetime.start.p0(i64 16, ptr %5) #24
  %6 = load i32, ptr %4, align 4
  %7 = getelementptr inbounds nuw %struct.decoded_data_t, ptr %5, i32 0, i32 0
  store i32 %6, ptr %7, align 8
  %8 = load ptr, ptr %3, align 8
  %9 = getelementptr inbounds nuw %struct._proto_node, ptr %8, i32 0, i32 6
  %10 = load ptr, ptr %9, align 8
  %11 = getelementptr inbounds nuw %struct.tree_data_t, ptr %10, i32 0, i32 4
  %12 = load ptr, ptr %11, align 8
  %13 = getelementptr inbounds nuw %struct._packet_info, ptr %12, i32 0, i32 51
  %14 = load ptr, ptr %13, align 8
  %15 = load i32, ptr %4, align 4
  %16 = udiv i32 %15, 8
  %17 = add i32 %16, 1
  %18 = zext i32 %17 to i64
  %19 = call noalias ptr @wmem_alloc0(ptr noundef %14, i64 noundef %18) #30
  %20 = getelementptr inbounds nuw %struct.decoded_data_t, ptr %5, i32 0, i32 1
  store ptr %19, ptr %20, align 8
  %21 = load ptr, ptr %3, align 8
  %22 = call zeroext i1 @proto_tree_traverse_pre_order(ptr noundef %21, ptr noundef @check_for_undecoded, ptr noundef %5)
  %23 = getelementptr inbounds nuw %struct.decoded_data_t, ptr %5, i32 0, i32 1
  %24 = load ptr, ptr %23, align 8
  call void @llvm.lifetime.end.p0(i64 16, ptr %5) #24
  ret ptr %24
}