; Function Attrs: null_pointer_is_valid sspstrong uwtable
define ptr @proto_find_undecoded_data(ptr noundef %0, i32 noundef %1) local_unnamed_addr #0 {
  %3 = alloca %struct.decoded_data_t, align 8
  call void @llvm.lifetime.start.p0(i64 16, ptr nonnull %3) #39
  store i32 %1, ptr %3, align 8
  %4 = getelementptr inbounds nuw i8, ptr %0, i64 48
  %5 = load ptr, ptr %4, align 8
  %6 = getelementptr inbounds nuw i8, ptr %5, i64 16
  %7 = load ptr, ptr %6, align 8
  %8 = getelementptr inbounds nuw i8, ptr %7, i64 408
  %9 = load ptr, ptr %8, align 8
  %10 = lshr i32 %1, 3
  %11 = add nuw nsw i32 %10, 1
  %12 = zext nneg i32 %11 to i64
  %13 = tail call noalias ptr @wmem_alloc0(ptr noundef %9, i64 noundef %12) #42
  %14 = getelementptr inbounds nuw i8, ptr %3, i64 8
  store ptr %13, ptr %14, align 8
  %15 = call fastcc zeroext i1 @proto_tree_traverse_pre_order(ptr noundef %0, ptr noundef nonnull @check_for_undecoded, ptr noundef nonnull %3)
  %16 = load ptr, ptr %14, align 8
  call void @llvm.lifetime.end.p0(i64 16, ptr nonnull %3) #39
  ret ptr %16
}